(dp1
S'output'
p2
S"<type 'exceptions.AttributeError'> 'Table' object has no attribute 'type'"
p3
sS'layer'
p4
S'/home/siddhartha/web2py/applications/nreci/controllers/default.py'
p5
sS'code'
p6
S'# -*- coding: utf-8 -*-\n# this file is released under public domain and you can use without limitations\n\n#########################################################################\n## This is a sample controller\n## - index is the default action of any application\n## - user is required for authentication and authorization\n## - download is for downloading files uploaded in the db (does streaming)\n#########################################################################\n@auth.requires_login()\ndef index():\n    """\n    example action using the internationalization operator T and flash\n    rendered by views/default/index.html or views/generic.html\n\n    if you need a simple wiki simply replace the two lines below with:\n    return auth.wiki()\n        """\n    fields=db().select(db.recipe,db.recipe.summary,orderby=db.recipe.created_on)\n    return dict(fields=fields)\n@auth.requires_login()\ndef create():\n    form=SQLFORM(db.recipe).process(next=URL(\'index\'))\n    return dict(form=form)\n@auth.requires_login()\ndef show():\n    this_page = db.recipe(request.args(0,cast=int)) or redirect(URL(\'index\'))\n    return dict(recipe=this_page)\ndef register():\n    return dict(form=auth.register())\ndef user():\n    """\n    exposes:\n    http://..../[app]/default/user/login\n    http://..../[app]/default/user/logout\n    http://..../[app]/default/user/register\n    http://..../[app]/default/user/profile\n    http://..../[app]/default/user/retrieve_password\n    http://..../[app]/default/user/change_password\n    http://..../[app]/default/user/bulk_register\n    use @auth.requires_login()\n        @auth.requires_membership(\'group name\')\n        @auth.requires_permission(\'read\',\'table name\',record_id)\n    to decorate functions that need access control\n    also notice there is http://..../[app]/appadmin/manage/auth to allow administrator to manage users\n    """\n    return dict(form=auth())\n\n\n@cache.action()\ndef download():\n    """\n    allows downloading of uploaded files\n    http://..../[app]/default/download/[filename]\n    """\n    return response.download(request, db)\n\n\ndef call():\n    """\n    exposes services. for example:\n    http://..../[app]/default/call/jsonrpc\n    decorate with @services.jsonrpc the functions to expose\n    supports xml, json, xmlrpc, jsonrpc, amfrpc, rss, csv\n    """\n    return service()\n\nresponse._vars=response._caller(index)\n'
p7
sS'snapshot'
p8
(dp9
sS'traceback'
p10
S'Traceback (most recent call last):\n  File "/home/siddhartha/web2py/gluon/restricted.py", line 227, in restricted\n    exec ccode in environment\n  File "/home/siddhartha/web2py/applications/nreci/controllers/default.py", line 68, in <module>\n  File "/home/siddhartha/web2py/gluon/globals.py", line 412, in <lambda>\n    self._caller = lambda f: f()\n  File "/home/siddhartha/web2py/gluon/tools.py", line 4236, in f\n    return action(*a, **b)\n  File "/home/siddhartha/web2py/applications/nreci/controllers/default.py", line 19, in index\n    fields=db().select(db.recipe,db.recipe.summary,orderby=db.recipe.created_on)\n  File "/home/siddhartha/web2py/gluon/packages/dal/pydal/objects.py", line 2025, in select\n    return adapter.select(self.query,fields,attributes)\n  File "/home/siddhartha/web2py/gluon/packages/dal/pydal/adapters/sqlite.py", line 124, in select\n    return super(SQLiteAdapter, self).select(query, fields, attributes)\n  File "/home/siddhartha/web2py/gluon/packages/dal/pydal/adapters/base.py", line 1280, in select\n    sql = self._select(query, fields, attributes)\n  File "/home/siddhartha/web2py/gluon/packages/dal/pydal/adapters/base.py", line 1109, in _select\n    sql_f = \', \'.join(map(geoexpand, fields))\n  File "/home/siddhartha/web2py/gluon/packages/dal/pydal/adapters/base.py", line 1106, in geoexpand\n    if isinstance(field.type,str) and field.type.startswith(\'geo\') and isinstance(field, Field):\nAttributeError: \'Table\' object has no attribute \'type\'\n'
p11
s.